target datalayout = "e-m:e-p270:32:32-p271:32:32-p272:64:64-i64:64-i128:128-f80:128-n8:16:32:64-S128"
target triple = "x86_64-pc-linux-gnu"

@.str.30 = private unnamed_addr constant [4 x i8] c"%zd\00", align 1

; Function Attrs: nounwind uwtable
define internal zeroext i1 @ic_atoz(ptr noundef %0, ptr noundef %1) #0 {
  %3 = alloca ptr, align 8
  %4 = alloca ptr, align 8
  store ptr %0, ptr %3, align 8, !tbaa !11
  store ptr %1, ptr %4, align 8, !tbaa !62
  %5 = load ptr, ptr %3, align 8, !tbaa !11
  %6 = load ptr, ptr %4, align 8, !tbaa !62
  %7 = call i32 (ptr, ptr, ...) @__isoc99_sscanf(ptr noundef %5, ptr noundef @.str.30, ptr noundef %6) #13
  %8 = icmp eq i32 %7, 1
  ret i1 %8
}

; Function Attrs: nounwind uwtable
define internal zeroext i1 @sgr_is_digit(i8 noundef signext %0) #0 {
  %2 = alloca i8, align 1
  store i8 %0, ptr %2, align 1, !tbaa !13
  %3 = load i8, ptr %2, align 1, !tbaa !13
  %4 = sext i8 %3 to i32
  %5 = icmp sge i32 %4, 48
  br i1 %5, label %6, label %10

6:                                                ; preds = %1
  %7 = load i8, ptr %2, align 1, !tbaa !13
  %8 = sext i8 %7 to i32
  %9 = icmp sle i32 %8, 57
  br label %10

10:                                               ; preds = %6, %1
  %11 = phi i1 [ false, %1 ], [ %9, %6 ]
  ret i1 %11
}

; Function Attrs: nounwind uwtable
define internal zeroext i1 @sgr_next_par(ptr noundef %0, ptr noundef %1, ptr noundef %2) #0 {
  %4 = alloca i1, align 1
  %5 = alloca ptr, align 8
  %6 = alloca ptr, align 8
  %7 = alloca ptr, align 8
  %8 = alloca i64, align 8
  %9 = alloca i64, align 8
  %10 = alloca i32, align 4
  store ptr %0, ptr %5, align 8, !tbaa !11
  store ptr %1, ptr %6, align 8, !tbaa !62
  store ptr %2, ptr %7, align 8, !tbaa !62
  call void @llvm.lifetime.start.p0(i64 8, ptr %8) #13
  %11 = load ptr, ptr %6, align 8, !tbaa !62
  %12 = load i64, ptr %11, align 8, !tbaa !9
  store i64 %12, ptr %8, align 8, !tbaa !9
  call void @llvm.lifetime.start.p0(i64 8, ptr %9) #13
  store i64 0, ptr %9, align 8, !tbaa !9
  br label %13

13:                                               ; preds = %21, %3
  %14 = load ptr, ptr %5, align 8, !tbaa !11
  %15 = load i64, ptr %8, align 8, !tbaa !9
  %16 = load i64, ptr %9, align 8, !tbaa !9
  %17 = add nsw i64 %15, %16
  %18 = getelementptr inbounds i8, ptr %14, i64 %17
  %19 = load i8, ptr %18, align 1, !tbaa !13
  %20 = call zeroext i1 @sgr_is_digit(i8 noundef signext %19)
  br i1 %20, label %21, label %24

21:                                               ; preds = %13
  %22 = load i64, ptr %9, align 8, !tbaa !9
  %23 = add nsw i64 %22, 1
  store i64 %23, ptr %9, align 8, !tbaa !9
  br label %13, !llvm.loop !215

24:                                               ; preds = %13
  %25 = load i64, ptr %9, align 8, !tbaa !9
  %26 = icmp eq i64 %25, 0
  br i1 %26, label %27, label %29

27:                                               ; preds = %24
  %28 = load ptr, ptr %7, align 8, !tbaa !62
  store i64 0, ptr %28, align 8, !tbaa !9
  store i1 true, ptr %4, align 1
  store i32 1, ptr %10, align 4
  br label %39

29:                                               ; preds = %24
  %30 = load i64, ptr %8, align 8, !tbaa !9
  %31 = load i64, ptr %9, align 8, !tbaa !9
  %32 = add nsw i64 %30, %31
  %33 = load ptr, ptr %6, align 8, !tbaa !62
  store i64 %32, ptr %33, align 8, !tbaa !9
  %34 = load ptr, ptr %5, align 8, !tbaa !11
  %35 = load i64, ptr %8, align 8, !tbaa !9
  %36 = getelementptr inbounds i8, ptr %34, i64 %35
  %37 = load ptr, ptr %7, align 8, !tbaa !62
  %38 = call zeroext i1 @ic_atoz(ptr noundef %36, ptr noundef %37)
  store i1 %38, ptr %4, align 1
  store i32 1, ptr %10, align 4
  br label %39

39:                                               ; preds = %29, %27
  call void @llvm.lifetime.end.p0(i64 8, ptr %9) #13
  call void @llvm.lifetime.end.p0(i64 8, ptr %8) #13
  %40 = load i1, ptr %4, align 1
  ret i1 %40
}