; Function Attrs: nofree nounwind uwtable
define internal fastcc noundef zeroext i1 @sgr_next_par(ptr noundef readonly captures(none) %0, ptr noundef nonnull captures(none) %1, ptr noundef nonnull %2) unnamed_addr #2 {
  %4 = load i64, ptr %1, align 8, !tbaa !57
  br label %5

5:                                                ; preds = %5, %3
  %.0 = phi i64 [ 0, %3 ], [ %11, %5 ]
  %6 = add nsw i64 %.0, %4
  %7 = getelementptr inbounds i8, ptr %0, i64 %6
  %8 = load i8, ptr %7, align 1, !tbaa !4
  %9 = add i8 %8, -48
  %10 = icmp ult i8 %9, 10
  %11 = add nuw nsw i64 %.0, 1
  br i1 %10, label %5, label %12, !llvm.loop !224

12:                                               ; preds = %5
  %13 = icmp eq i64 %.0, 0
  br i1 %13, label %14, label %15

14:                                               ; preds = %12
  store i64 0, ptr %2, align 8, !tbaa !57
  br label %19

15:                                               ; preds = %12
  store i64 %6, ptr %1, align 8, !tbaa !57
  %16 = getelementptr inbounds i8, ptr %0, i64 %4
  %17 = tail call i32 (ptr, ptr, ...) @__isoc99_sscanf(ptr noundef readonly %16, ptr noundef nonnull @.str.30, ptr noundef nonnull %2) #32
  %18 = icmp eq i32 %17, 1
  br label %19

19:                                               ; preds = %15, %14
  %.013 = phi i1 [ true, %14 ], [ %18, %15 ]
  ret i1 %.013
}